target datalayout = "e-m:e-p270:32:32-p271:32:32-p272:64:64-i64:64-i128:128-f80:128-n8:16:32:64-S128"
target triple = "x86_64-pc-linux-gnu"

%struct.AVDictionary = type { i32, ptr }
%struct.AVDictionaryEntry = type { ptr, ptr }

; Function Attrs: inlinehint nounwind willreturn memory(none) uwtable
define internal i32 @av_toupper(i32 noundef %0) #2 {
  %2 = alloca i32, align 4
  store i32 %0, ptr %2, align 4, !tbaa !14
  %3 = load i32, ptr %2, align 4, !tbaa !14
  %4 = icmp sge i32 %3, 97
  br i1 %4, label %5, label %11

5:                                                ; preds = %1
  %6 = load i32, ptr %2, align 4, !tbaa !14
  %7 = icmp sle i32 %6, 122
  br i1 %7, label %8, label %11

8:                                                ; preds = %5
  %9 = load i32, ptr %2, align 4, !tbaa !14
  %10 = xor i32 %9, 32
  store i32 %10, ptr %2, align 4, !tbaa !14
  br label %11

11:                                               ; preds = %8, %5, %1
  %12 = load i32, ptr %2, align 4, !tbaa !14
  ret i32 %12
}

; Function Attrs: nounwind uwtable
define ptr @av_dict_iterate(ptr noundef %0, ptr noundef %1) #0 {
  %3 = alloca ptr, align 8
  %4 = alloca ptr, align 8
  %5 = alloca ptr, align 8
  %6 = alloca i32, align 4
  %7 = alloca i32, align 4
  store ptr %0, ptr %4, align 8, !tbaa !4
  store ptr %1, ptr %5, align 8, !tbaa !13
  call void @llvm.lifetime.start.p0(i64 4, ptr %6) #7
  store i32 0, ptr %6, align 4, !tbaa !14
  %8 = load ptr, ptr %4, align 8, !tbaa !4
  %9 = icmp ne ptr %8, null
  br i1 %9, label %11, label %10

10:                                               ; preds = %2
  store ptr null, ptr %3, align 8
  store i32 1, ptr %7, align 4
  br label %39

11:                                               ; preds = %2
  %12 = load ptr, ptr %5, align 8, !tbaa !13
  %13 = icmp ne ptr %12, null
  br i1 %13, label %14, label %25

14:                                               ; preds = %11
  %15 = load ptr, ptr %5, align 8, !tbaa !13
  %16 = load ptr, ptr %4, align 8, !tbaa !4
  %17 = getelementptr inbounds nuw %struct.AVDictionary, ptr %16, i32 0, i32 1
  %18 = load ptr, ptr %17, align 8, !tbaa !15
  %19 = ptrtoint ptr %15 to i64
  %20 = ptrtoint ptr %18 to i64
  %21 = sub i64 %19, %20
  %22 = sdiv exact i64 %21, 16
  %23 = add nsw i64 %22, 1
  %24 = trunc i64 %23 to i32
  store i32 %24, ptr %6, align 4, !tbaa !14
  br label %25

25:                                               ; preds = %14, %11
  %26 = load i32, ptr %6, align 4, !tbaa !14
  %27 = load ptr, ptr %4, align 8, !tbaa !4
  %28 = getelementptr inbounds nuw %struct.AVDictionary, ptr %27, i32 0, i32 0
  %29 = load i32, ptr %28, align 8, !tbaa !9
  %30 = icmp sge i32 %26, %29
  br i1 %30, label %31, label %32

31:                                               ; preds = %25
  store ptr null, ptr %3, align 8
  store i32 1, ptr %7, align 4
  br label %39

32:                                               ; preds = %25
  %33 = load ptr, ptr %4, align 8, !tbaa !4
  %34 = getelementptr inbounds nuw %struct.AVDictionary, ptr %33, i32 0, i32 1
  %35 = load ptr, ptr %34, align 8, !tbaa !15
  %36 = load i32, ptr %6, align 4, !tbaa !14
  %37 = sext i32 %36 to i64
  %38 = getelementptr inbounds %struct.AVDictionaryEntry, ptr %35, i64 %37
  store ptr %38, ptr %3, align 8
  store i32 1, ptr %7, align 4
  br label %39

39:                                               ; preds = %32, %31, %10
  call void @llvm.lifetime.end.p0(i64 4, ptr %6) #7
  %40 = load ptr, ptr %3, align 8
  ret ptr %40
}

; Function Attrs: nounwind uwtable
define ptr @av_dict_get(ptr noundef %0, ptr noundef %1, ptr noundef %2, i32 noundef %3) #0 {
  %5 = alloca ptr, align 8
  %6 = alloca ptr, align 8
  %7 = alloca ptr, align 8
  %8 = alloca ptr, align 8
  %9 = alloca i32, align 4
  %10 = alloca ptr, align 8
  %11 = alloca i32, align 4
  %12 = alloca i32, align 4
  %13 = alloca ptr, align 8
  store ptr %0, ptr %6, align 8, !tbaa !4
  store ptr %1, ptr %7, align 8, !tbaa !16
  store ptr %2, ptr %8, align 8, !tbaa !13
  store i32 %3, ptr %9, align 4, !tbaa !14
  call void @llvm.lifetime.start.p0(i64 8, ptr %10) #7
  %14 = load ptr, ptr %8, align 8, !tbaa !13
  store ptr %14, ptr %10, align 8, !tbaa !13
  call void @llvm.lifetime.start.p0(i64 4, ptr %11) #7
  %15 = load ptr, ptr %7, align 8, !tbaa !16
  %16 = icmp ne ptr %15, null
  br i1 %16, label %18, label %17

17:                                               ; preds = %4
  store ptr null, ptr %5, align 8
  store i32 1, ptr %12, align 4
  br label %119

18:                                               ; preds = %4
  br label %19

19:                                               ; preds = %116, %18
  %20 = load ptr, ptr %6, align 8, !tbaa !4
  %21 = load ptr, ptr %10, align 8, !tbaa !13
  %22 = call ptr @av_dict_iterate(ptr noundef %20, ptr noundef %21)
  store ptr %22, ptr %10, align 8, !tbaa !13
  %23 = icmp ne ptr %22, null
  br i1 %23, label %24, label %118

24:                                               ; preds = %19
  call void @llvm.lifetime.start.p0(i64 8, ptr %13) #7
  %25 = load ptr, ptr %10, align 8, !tbaa !13
  %26 = getelementptr inbounds nuw %struct.AVDictionaryEntry, ptr %25, i32 0, i32 0
  %27 = load ptr, ptr %26, align 8, !tbaa !18
  store ptr %27, ptr %13, align 8, !tbaa !16
  %28 = load i32, ptr %9, align 4, !tbaa !14
  %29 = and i32 %28, 1
  %30 = icmp ne i32 %29, 0
  br i1 %30, label %31, label %61

31:                                               ; preds = %24
  store i32 0, ptr %11, align 4, !tbaa !14
  br label %32

32:                                               ; preds = %57, %31
  %33 = load ptr, ptr %13, align 8, !tbaa !16
  %34 = load i32, ptr %11, align 4, !tbaa !14
  %35 = zext i32 %34 to i64
  %36 = getelementptr inbounds nuw i8, ptr %33, i64 %35
  %37 = load i8, ptr %36, align 1, !tbaa !20
  %38 = sext i8 %37 to i32
  %39 = load ptr, ptr %7, align 8, !tbaa !16
  %40 = load i32, ptr %11, align 4, !tbaa !14
  %41 = zext i32 %40 to i64
  %42 = getelementptr inbounds nuw i8, ptr %39, i64 %41
  %43 = load i8, ptr %42, align 1, !tbaa !20
  %44 = sext i8 %43 to i32
  %45 = icmp eq i32 %38, %44
  br i1 %45, label %46, label %54

46:                                               ; preds = %32
  %47 = load ptr, ptr %7, align 8, !tbaa !16
  %48 = load i32, ptr %11, align 4, !tbaa !14
  %49 = zext i32 %48 to i64
  %50 = getelementptr inbounds nuw i8, ptr %47, i64 %49
  %51 = load i8, ptr %50, align 1, !tbaa !20
  %52 = sext i8 %51 to i32
  %53 = icmp ne i32 %52, 0
  br label %54

54:                                               ; preds = %46, %32
  %55 = phi i1 [ false, %32 ], [ %53, %46 ]
  br i1 %55, label %56, label %60

56:                                               ; preds = %54
  br label %57

57:                                               ; preds = %56
  %58 = load i32, ptr %11, align 4, !tbaa !14
  %59 = add i32 %58, 1
  store i32 %59, ptr %11, align 4, !tbaa !14
  br label %32, !llvm.loop !21

60:                                               ; preds = %54
  br label %93

61:                                               ; preds = %24
  store i32 0, ptr %11, align 4, !tbaa !14
  br label %62

62:                                               ; preds = %89, %61
  %63 = load ptr, ptr %13, align 8, !tbaa !16
  %64 = load i32, ptr %11, align 4, !tbaa !14
  %65 = zext i32 %64 to i64
  %66 = getelementptr inbounds nuw i8, ptr %63, i64 %65
  %67 = load i8, ptr %66, align 1, !tbaa !20
  %68 = sext i8 %67 to i32
  %69 = call i32 @av_toupper(i32 noundef %68) #8
  %70 = load ptr, ptr %7, align 8, !tbaa !16
  %71 = load i32, ptr %11, align 4, !tbaa !14
  %72 = zext i32 %71 to i64
  %73 = getelementptr inbounds nuw i8, ptr %70, i64 %72
  %74 = load i8, ptr %73, align 1, !tbaa !20
  %75 = sext i8 %74 to i32
  %76 = call i32 @av_toupper(i32 noundef %75) #8
  %77 = icmp eq i32 %69, %76
  br i1 %77, label %78, label %86

78:                                               ; preds = %62
  %79 = load ptr, ptr %7, align 8, !tbaa !16
  %80 = load i32, ptr %11, align 4, !tbaa !14
  %81 = zext i32 %80 to i64
  %82 = getelementptr inbounds nuw i8, ptr %79, i64 %81
  %83 = load i8, ptr %82, align 1, !tbaa !20
  %84 = sext i8 %83 to i32
  %85 = icmp ne i32 %84, 0
  br label %86

86:                                               ; preds = %78, %62
  %87 = phi i1 [ false, %62 ], [ %85, %78 ]
  br i1 %87, label %88, label %92

88:                                               ; preds = %86
  br label %89

89:                                               ; preds = %88
  %90 = load i32, ptr %11, align 4, !tbaa !14
  %91 = add i32 %90, 1
  store i32 %91, ptr %11, align 4, !tbaa !14
  br label %62, !llvm.loop !23

92:                                               ; preds = %86
  br label %93

93:                                               ; preds = %92, %60
  %94 = load ptr, ptr %7, align 8, !tbaa !16
  %95 = load i32, ptr %11, align 4, !tbaa !14
  %96 = zext i32 %95 to i64
  %97 = getelementptr inbounds nuw i8, ptr %94, i64 %96
  %98 = load i8, ptr %97, align 1, !tbaa !20
  %99 = icmp ne i8 %98, 0
  br i1 %99, label %100, label %101

100:                                              ; preds = %93
  store i32 2, ptr %12, align 4
  br label %116, !llvm.loop !24

101:                                              ; preds = %93
  %102 = load ptr, ptr %13, align 8, !tbaa !16
  %103 = load i32, ptr %11, align 4, !tbaa !14
  %104 = zext i32 %103 to i64
  %105 = getelementptr inbounds nuw i8, ptr %102, i64 %104
  %106 = load i8, ptr %105, align 1, !tbaa !20
  %107 = sext i8 %106 to i32
  %108 = icmp ne i32 %107, 0
  br i1 %108, label %109, label %114

109:                                              ; preds = %101
  %110 = load i32, ptr %9, align 4, !tbaa !14
  %111 = and i32 %110, 2
  %112 = icmp ne i32 %111, 0
  br i1 %112, label %114, label %113

113:                                              ; preds = %109
  store i32 2, ptr %12, align 4
  br label %116, !llvm.loop !24

114:                                              ; preds = %109, %101
  %115 = load ptr, ptr %10, align 8, !tbaa !13
  store ptr %115, ptr %5, align 8
  store i32 1, ptr %12, align 4
  br label %116

116:                                              ; preds = %114, %113, %100
  call void @llvm.lifetime.end.p0(i64 8, ptr %13) #7
  %117 = load i32, ptr %12, align 4
  switch i32 %117, label %119 [
    i32 2, label %19
  ]

118:                                              ; preds = %19
  store ptr null, ptr %5, align 8
  store i32 1, ptr %12, align 4
  br label %119

119:                                              ; preds = %118, %116, %17
  call void @llvm.lifetime.end.p0(i64 4, ptr %11) #7
  call void @llvm.lifetime.end.p0(i64 8, ptr %10) #7
  %120 = load ptr, ptr %5, align 8
  ret ptr %120
}