; Function Attrs: nofree norecurse nosync nounwind memory(read, inaccessiblemem: none) uwtable
define ptr @av_dict_get(ptr noundef readonly captures(address_is_null) %0, ptr noundef readonly captures(address_is_null) %1, ptr noundef %2, i32 noundef %3) local_unnamed_addr #2 {
  %.not = icmp eq ptr %1, null
  br i1 %.not, label %av_dict_iterate.exit.thread, label %.preheader57

.preheader57:                                     ; preds = %4
  %5 = getelementptr inbounds nuw i8, ptr %0, i64 8
  %.not.i = icmp eq ptr %0, null
  br i1 %.not.i, label %av_dict_iterate.exit.thread, label %.lr.ph

.lr.ph:                                           ; preds = %.preheader57
  %6 = load i32, ptr %0, align 8, !tbaa !4
  %7 = and i32 %3, 1
  %.not39 = icmp eq i32 %7, 0
  %8 = and i32 %3, 2
  %.not44 = icmp eq i32 %8, 0
  br i1 %.not39, label %.lr.ph.split.us, label %.lr.ph.split

.lr.ph.split.us:                                  ; preds = %.lr.ph, %.critedge.loopexit.us
  %.03361.us = phi ptr [ %20, %.critedge.loopexit.us ], [ %2, %.lr.ph ]
  %.not11.i.us = icmp eq ptr %.03361.us, null
  br i1 %.not11.i.us, label %17, label %9

9:                                                ; preds = %.lr.ph.split.us
  %10 = load ptr, ptr %5, align 8, !tbaa !11
  %11 = ptrtoint ptr %.03361.us to i64
  %12 = ptrtoint ptr %10 to i64
  %13 = sub i64 %11, %12
  %14 = lshr exact i64 %13, 4
  %15 = trunc i64 %14 to i32
  %16 = add i32 %15, 1
  br label %17

17:                                               ; preds = %9, %.lr.ph.split.us
  %.0.i.us = phi i32 [ %16, %9 ], [ 0, %.lr.ph.split.us ]
  %.not12.i.us = icmp slt i32 %.0.i.us, %6
  br i1 %.not12.i.us, label %av_dict_iterate.exit.us, label %av_dict_iterate.exit.thread

av_dict_iterate.exit.us:                          ; preds = %17
  %18 = load ptr, ptr %5, align 8, !tbaa !11
  %19 = sext i32 %.0.i.us to i64
  %20 = getelementptr inbounds %struct.AVDictionaryEntry, ptr %18, i64 %19
  %.not38.us = icmp eq ptr %18, null
  br i1 %.not38.us, label %av_dict_iterate.exit.thread, label %.split.us

.split.us:                                        ; preds = %av_dict_iterate.exit.us
  %21 = load ptr, ptr %20, align 8, !tbaa !12
  %22 = load i8, ptr %21, align 1, !tbaa !15
  %23 = sext i8 %22 to i32
  %24 = add nsw i32 %23, -97
  %or.cond.i.us = icmp ult i32 %24, 26
  %25 = and i32 %23, 95
  %spec.select.i.us = select i1 %or.cond.i.us, i32 %25, i32 %23
  %26 = load i8, ptr %1, align 1, !tbaa !15
  %27 = sext i8 %26 to i32
  %28 = add nsw i32 %27, -97
  %or.cond.i48.us = icmp ult i32 %28, 26
  %29 = and i32 %27, 95
  %spec.select.i49.us = select i1 %or.cond.i48.us, i32 %29, i32 %27
  %30 = icmp ne i32 %spec.select.i.us, %spec.select.i49.us
  %.not4058.us = icmp eq i8 %26, 0
  %or.cond4559.us = or i1 %.not4058.us, %30
  br i1 %or.cond4559.us, label %.critedge.loopexit.us, label %.split35.us

.split35.us:                                      ; preds = %.split.us, %.split35.us
  %.23260.us = phi i32 [ %31, %.split35.us ], [ 0, %.split.us ]
  %31 = add i32 %.23260.us, 1
  %32 = zext i32 %31 to i64
  %33 = getelementptr inbounds nuw i8, ptr %21, i64 %32
  %34 = load i8, ptr %33, align 1, !tbaa !15
  %35 = sext i8 %34 to i32
  %36 = add nsw i32 %35, -97
  %or.cond.i50.us = icmp ult i32 %36, 26
  %37 = and i32 %35, 95
  %spec.select.i51.us = select i1 %or.cond.i50.us, i32 %37, i32 %35
  %38 = getelementptr inbounds nuw i8, ptr %1, i64 %32
  %39 = load i8, ptr %38, align 1, !tbaa !15
  %40 = sext i8 %39 to i32
  %41 = add nsw i32 %40, -97
  %or.cond.i52.us = icmp ult i32 %41, 26
  %42 = and i32 %40, 95
  %spec.select.i53.us = select i1 %or.cond.i52.us, i32 %42, i32 %40
  %43 = icmp ne i32 %spec.select.i51.us, %spec.select.i53.us
  %.not40.us = icmp eq i8 %39, 0
  %or.cond45.us = or i1 %.not40.us, %43
  br i1 %or.cond45.us, label %.critedge.loopexit.us, label %.split35.us, !llvm.loop !16

.critedge.loopexit.us:                            ; preds = %.split35.us, %.split.us
  %44 = phi i8 [ %22, %.split.us ], [ %34, %.split35.us ]
  %45 = phi i8 [ %26, %.split.us ], [ %39, %.split35.us ]
  %.not42.us = icmp ne i8 %45, 0
  %.not43.us = icmp ne i8 %44, 0
  %or.cond46.us = and i1 %.not44, %.not43.us
  %or.cond132 = or i1 %.not42.us, %or.cond46.us
  br i1 %or.cond132, label %.lr.ph.split.us, label %av_dict_iterate.exit.thread

.lr.ph.split:                                     ; preds = %.lr.ph
  br i1 %.not44, label %.lr.ph.split.split.split, label %.lr.ph.split.split.us.split

.lr.ph.split.split.us.split:                      ; preds = %.lr.ph.split, %.critedge.loopexit56.us
  %.03361.us71 = phi ptr [ %57, %.critedge.loopexit56.us ], [ %2, %.lr.ph.split ]
  %.not11.i.us72 = icmp eq ptr %.03361.us71, null
  br i1 %.not11.i.us72, label %54, label %46

46:                                               ; preds = %.lr.ph.split.split.us.split
  %47 = load ptr, ptr %5, align 8, !tbaa !11
  %48 = ptrtoint ptr %.03361.us71 to i64
  %49 = ptrtoint ptr %47 to i64
  %50 = sub i64 %48, %49
  %51 = lshr exact i64 %50, 4
  %52 = trunc i64 %51 to i32
  %53 = add i32 %52, 1
  br label %54

54:                                               ; preds = %46, %.lr.ph.split.split.us.split
  %.0.i.us73 = phi i32 [ %53, %46 ], [ 0, %.lr.ph.split.split.us.split ]
  %.not12.i.us74 = icmp slt i32 %.0.i.us73, %6
  br i1 %.not12.i.us74, label %av_dict_iterate.exit.us75, label %av_dict_iterate.exit.thread

av_dict_iterate.exit.us75:                        ; preds = %54
  %55 = load ptr, ptr %5, align 8, !tbaa !11
  %56 = sext i32 %.0.i.us73 to i64
  %57 = getelementptr inbounds %struct.AVDictionaryEntry, ptr %55, i64 %56
  %.not38.us76 = icmp eq ptr %55, null
  br i1 %.not38.us76, label %av_dict_iterate.exit.thread, label %.preheader.us

.preheader.us:                                    ; preds = %av_dict_iterate.exit.us75
  %58 = load ptr, ptr %57, align 8, !tbaa !12
  br label %59

59:                                               ; preds = %59, %.preheader.us
  %.030.us = phi i32 [ %66, %59 ], [ 0, %.preheader.us ]
  %60 = zext i32 %.030.us to i64
  %61 = getelementptr inbounds nuw i8, ptr %58, i64 %60
  %62 = load i8, ptr %61, align 1, !tbaa !15
  %63 = getelementptr inbounds nuw i8, ptr %1, i64 %60
  %64 = load i8, ptr %63, align 1, !tbaa !15
  %65 = icmp ne i8 %62, %64
  %.not41.us = icmp eq i8 %64, 0
  %or.cond.us = or i1 %65, %.not41.us
  %66 = add i32 %.030.us, 1
  br i1 %or.cond.us, label %.critedge.loopexit56.us, label %59, !llvm.loop !18

.critedge.loopexit56.us:                          ; preds = %59
  br i1 %.not41.us, label %av_dict_iterate.exit.thread, label %.lr.ph.split.split.us.split

.lr.ph.split.split.split:                         ; preds = %.lr.ph.split, %.critedge.loopexit56
  %.03361 = phi ptr [ %78, %.critedge.loopexit56 ], [ %2, %.lr.ph.split ]
  %.not11.i = icmp eq ptr %.03361, null
  br i1 %.not11.i, label %75, label %67

67:                                               ; preds = %.lr.ph.split.split.split
  %68 = load ptr, ptr %5, align 8, !tbaa !11
  %69 = ptrtoint ptr %.03361 to i64
  %70 = ptrtoint ptr %68 to i64
  %71 = sub i64 %69, %70
  %72 = lshr exact i64 %71, 4
  %73 = trunc i64 %72 to i32
  %74 = add i32 %73, 1
  br label %75

75:                                               ; preds = %67, %.lr.ph.split.split.split
  %.0.i = phi i32 [ %74, %67 ], [ 0, %.lr.ph.split.split.split ]
  %.not12.i = icmp slt i32 %.0.i, %6
  br i1 %.not12.i, label %av_dict_iterate.exit, label %av_dict_iterate.exit.thread

av_dict_iterate.exit:                             ; preds = %75
  %76 = load ptr, ptr %5, align 8, !tbaa !11
  %77 = sext i32 %.0.i to i64
  %78 = getelementptr inbounds %struct.AVDictionaryEntry, ptr %76, i64 %77
  %.not38 = icmp eq ptr %76, null
  br i1 %.not38, label %av_dict_iterate.exit.thread, label %.preheader

.preheader:                                       ; preds = %av_dict_iterate.exit
  %79 = load ptr, ptr %78, align 8, !tbaa !12
  br label %80

80:                                               ; preds = %80, %.preheader
  %.030 = phi i32 [ %87, %80 ], [ 0, %.preheader ]
  %81 = zext i32 %.030 to i64
  %82 = getelementptr inbounds nuw i8, ptr %79, i64 %81
  %83 = load i8, ptr %82, align 1, !tbaa !15
  %84 = getelementptr inbounds nuw i8, ptr %1, i64 %81
  %85 = load i8, ptr %84, align 1, !tbaa !15
  %86 = icmp ne i8 %83, %85
  %.not41 = icmp eq i8 %85, 0
  %or.cond = or i1 %86, %.not41
  %87 = add i32 %.030, 1
  br i1 %or.cond, label %.critedge.loopexit56, label %80, !llvm.loop !18

.critedge.loopexit56:                             ; preds = %80
  %88 = or i8 %85, %83
  %or.cond127 = icmp eq i8 %88, 0
  br i1 %or.cond127, label %av_dict_iterate.exit.thread, label %.lr.ph.split.split.split

av_dict_iterate.exit.thread:                      ; preds = %av_dict_iterate.exit.us75, %.critedge.loopexit56.us, %54, %av_dict_iterate.exit, %75, %.critedge.loopexit56, %av_dict_iterate.exit.us, %17, %.critedge.loopexit.us, %.preheader57, %4
  %.0 = phi ptr [ null, %4 ], [ null, %.preheader57 ], [ null, %av_dict_iterate.exit.us ], [ null, %17 ], [ %20, %.critedge.loopexit.us ], [ null, %av_dict_iterate.exit ], [ null, %75 ], [ %78, %.critedge.loopexit56 ], [ null, %av_dict_iterate.exit.us75 ], [ %57, %.critedge.loopexit56.us ], [ null, %54 ]
  ret ptr %.0
}